target datalayout = "e-m:e-p270:32:32-p271:32:32-p272:64:64-i64:64-i128:128-f80:128-n8:16:32:64-S128"
target triple = "x86_64-pc-linux-gnu"

%struct._packet_info = type { ptr, ptr, i32, i32, %struct.nstime_t, %struct.nstime_t, %struct.nstime_t, i8, ptr, ptr, ptr, ptr, %struct._address, %struct._address, %struct._address, %struct._address, %struct._address, %struct._address, i32, ptr, i8, [3 x i8], %struct.anon, i32, i32, i32, i32, ptr, i8, ptr, ptr, i16, i16, i32, i32, i16, i32, i32, ptr, ptr, ptr, i8, i8, i16, i16, i16, i32, i16, i16, ptr, ptr, ptr, ptr, ptr, i32, i32 }
%struct.nstime_t = type { i64, i32 }
%struct._address = type { i32, i32, ptr, ptr }
%struct.anon = type { i8, [3 x i8] }

@hf_oxid_setid = internal global i32 0, align 4
@hf_oxid_seqnum = internal global i32 0, align 4
@hf_oxid_addtoset = internal global i32 0, align 4
@hf_oxid_delfromset = internal global i32 0, align 4
@hf_oxid_oid = internal global i32 0, align 4
@.str.44 = private unnamed_addr constant [27 x i8] c" AddToSet=%u DelFromSet=%u\00", align 1

; Function Attrs: null_pointer_is_valid sspstrong uwtable
define internal i32 @dissect_oxid_complex_ping_rqst(ptr noundef %0, i32 noundef %1, ptr noundef %2, ptr noundef %3, ptr noundef %4, ptr noundef %5) #0 {
  %7 = alloca ptr, align 8
  %8 = alloca i32, align 4
  %9 = alloca ptr, align 8
  %10 = alloca ptr, align 8
  %11 = alloca ptr, align 8
  %12 = alloca ptr, align 8
  %13 = alloca i16, align 2
  %14 = alloca i16, align 2
  %15 = alloca i16, align 2
  %16 = alloca i32, align 4
  %17 = alloca i32, align 4
  store ptr %0, ptr %7, align 8
  store i32 %1, ptr %8, align 4
  store ptr %2, ptr %9, align 8
  store ptr %3, ptr %10, align 8
  store ptr %4, ptr %11, align 8
  store ptr %5, ptr %12, align 8
  call void @llvm.lifetime.start.p0(i64 2, ptr %13) #3
  call void @llvm.lifetime.start.p0(i64 2, ptr %14) #3
  call void @llvm.lifetime.start.p0(i64 2, ptr %15) #3
  call void @llvm.lifetime.start.p0(i64 4, ptr %16) #3
  call void @llvm.lifetime.start.p0(i64 4, ptr %17) #3
  %18 = load ptr, ptr %7, align 8
  %19 = load i32, ptr %8, align 4
  %20 = load ptr, ptr %9, align 8
  %21 = load ptr, ptr %10, align 8
  %22 = load ptr, ptr %11, align 8
  %23 = load ptr, ptr %12, align 8
  %24 = load i32, ptr @hf_oxid_setid, align 4
  %25 = call i32 @dissect_ndr_duint32(ptr noundef %18, i32 noundef %19, ptr noundef %20, ptr noundef %21, ptr noundef %22, ptr noundef %23, i32 noundef %24, ptr noundef null)
  store i32 %25, ptr %8, align 4
  %26 = load ptr, ptr %7, align 8
  %27 = load i32, ptr %8, align 4
  %28 = load ptr, ptr %9, align 8
  %29 = load ptr, ptr %10, align 8
  %30 = load ptr, ptr %11, align 8
  %31 = load ptr, ptr %12, align 8
  %32 = load i32, ptr @hf_oxid_seqnum, align 4
  %33 = call i32 @dissect_ndr_uint16(ptr noundef %26, i32 noundef %27, ptr noundef %28, ptr noundef %29, ptr noundef %30, ptr noundef %31, i32 noundef %32, ptr noundef %13)
  store i32 %33, ptr %8, align 4
  %34 = load ptr, ptr %7, align 8
  %35 = load i32, ptr %8, align 4
  %36 = load ptr, ptr %9, align 8
  %37 = load ptr, ptr %10, align 8
  %38 = load ptr, ptr %11, align 8
  %39 = load ptr, ptr %12, align 8
  %40 = load i32, ptr @hf_oxid_addtoset, align 4
  %41 = call i32 @dissect_ndr_uint16(ptr noundef %34, i32 noundef %35, ptr noundef %36, ptr noundef %37, ptr noundef %38, ptr noundef %39, i32 noundef %40, ptr noundef %14)
  store i32 %41, ptr %8, align 4
  %42 = load ptr, ptr %7, align 8
  %43 = load i32, ptr %8, align 4
  %44 = load ptr, ptr %9, align 8
  %45 = load ptr, ptr %10, align 8
  %46 = load ptr, ptr %11, align 8
  %47 = load ptr, ptr %12, align 8
  %48 = load i32, ptr @hf_oxid_delfromset, align 4
  %49 = call i32 @dissect_ndr_uint16(ptr noundef %42, i32 noundef %43, ptr noundef %44, ptr noundef %45, ptr noundef %46, ptr noundef %47, i32 noundef %48, ptr noundef %15)
  store i32 %49, ptr %8, align 4
  %50 = load ptr, ptr %9, align 8
  %51 = getelementptr inbounds nuw %struct._packet_info, ptr %50, i32 0, i32 1
  %52 = load ptr, ptr %51, align 8
  %53 = load i16, ptr %14, align 2
  %54 = zext i16 %53 to i32
  %55 = load i16, ptr %15, align 2
  %56 = zext i16 %55 to i32
  call void (ptr, i32, ptr, ...) @col_append_fstr(ptr noundef %52, i32 noundef 25, ptr noundef @.str.44, i32 noundef %54, i32 noundef %56)
  %57 = load ptr, ptr %7, align 8
  %58 = load i32, ptr %8, align 4
  %59 = load ptr, ptr %9, align 8
  %60 = load ptr, ptr %10, align 8
  %61 = load ptr, ptr %11, align 8
  %62 = load ptr, ptr %12, align 8
  %63 = call i32 @dissect_dcom_dcerpc_pointer(ptr noundef %57, i32 noundef %58, ptr noundef %59, ptr noundef %60, ptr noundef %61, ptr noundef %62, ptr noundef %16)
  store i32 %63, ptr %8, align 4
  %64 = load i32, ptr %16, align 4
  %65 = icmp ne i32 %64, 0
  br i1 %65, label %66, label %88

66:                                               ; preds = %6
  %67 = load ptr, ptr %7, align 8
  %68 = load i32, ptr %8, align 4
  %69 = load ptr, ptr %9, align 8
  %70 = load ptr, ptr %10, align 8
  %71 = load ptr, ptr %11, align 8
  %72 = load ptr, ptr %12, align 8
  %73 = call i32 @dissect_dcom_dcerpc_array_size(ptr noundef %67, i32 noundef %68, ptr noundef %69, ptr noundef %70, ptr noundef %71, ptr noundef %72, ptr noundef %17)
  store i32 %73, ptr %8, align 4
  br label %74

74:                                               ; preds = %78, %66
  %75 = load i16, ptr %14, align 2
  %76 = add i16 %75, -1
  store i16 %76, ptr %14, align 2
  %77 = icmp ne i16 %75, 0
  br i1 %77, label %78, label %87

78:                                               ; preds = %74
  %79 = load ptr, ptr %7, align 8
  %80 = load i32, ptr %8, align 4
  %81 = load ptr, ptr %9, align 8
  %82 = load ptr, ptr %10, align 8
  %83 = load ptr, ptr %11, align 8
  %84 = load ptr, ptr %12, align 8
  %85 = load i32, ptr @hf_oxid_oid, align 4
  %86 = call i32 @dissect_ndr_duint32(ptr noundef %79, i32 noundef %80, ptr noundef %81, ptr noundef %82, ptr noundef %83, ptr noundef %84, i32 noundef %85, ptr noundef null)
  store i32 %86, ptr %8, align 4
  br label %74, !llvm.loop !6

87:                                               ; preds = %74
  br label %88

88:                                               ; preds = %87, %6
  %89 = load ptr, ptr %7, align 8
  %90 = load i32, ptr %8, align 4
  %91 = load ptr, ptr %9, align 8
  %92 = load ptr, ptr %10, align 8
  %93 = load ptr, ptr %11, align 8
  %94 = load ptr, ptr %12, align 8
  %95 = call i32 @dissect_dcom_dcerpc_pointer(ptr noundef %89, i32 noundef %90, ptr noundef %91, ptr noundef %92, ptr noundef %93, ptr noundef %94, ptr noundef %16)
  store i32 %95, ptr %8, align 4
  %96 = load i32, ptr %16, align 4
  %97 = icmp ne i32 %96, 0
  br i1 %97, label %98, label %120

98:                                               ; preds = %88
  %99 = load ptr, ptr %7, align 8
  %100 = load i32, ptr %8, align 4
  %101 = load ptr, ptr %9, align 8
  %102 = load ptr, ptr %10, align 8
  %103 = load ptr, ptr %11, align 8
  %104 = load ptr, ptr %12, align 8
  %105 = call i32 @dissect_dcom_dcerpc_array_size(ptr noundef %99, i32 noundef %100, ptr noundef %101, ptr noundef %102, ptr noundef %103, ptr noundef %104, ptr noundef %17)
  store i32 %105, ptr %8, align 4
  br label %106

106:                                              ; preds = %110, %98
  %107 = load i16, ptr %15, align 2
  %108 = add i16 %107, -1
  store i16 %108, ptr %15, align 2
  %109 = icmp ne i16 %107, 0
  br i1 %109, label %110, label %119

110:                                              ; preds = %106
  %111 = load ptr, ptr %7, align 8
  %112 = load i32, ptr %8, align 4
  %113 = load ptr, ptr %9, align 8
  %114 = load ptr, ptr %10, align 8
  %115 = load ptr, ptr %11, align 8
  %116 = load ptr, ptr %12, align 8
  %117 = load i32, ptr @hf_oxid_oid, align 4
  %118 = call i32 @dissect_ndr_duint32(ptr noundef %111, i32 noundef %112, ptr noundef %113, ptr noundef %114, ptr noundef %115, ptr noundef %116, i32 noundef %117, ptr noundef null)
  store i32 %118, ptr %8, align 4
  br label %106, !llvm.loop !8

119:                                              ; preds = %106
  br label %120

120:                                              ; preds = %119, %88
  %121 = load i32, ptr %8, align 4
  call void @llvm.lifetime.end.p0(i64 4, ptr %17) #3
  call void @llvm.lifetime.end.p0(i64 4, ptr %16) #3
  call void @llvm.lifetime.end.p0(i64 2, ptr %15) #3
  call void @llvm.lifetime.end.p0(i64 2, ptr %14) #3
  call void @llvm.lifetime.end.p0(i64 2, ptr %13) #3
  ret i32 %121
}