; Function Attrs: null_pointer_is_valid sspstrong uwtable
define internal i32 @dissect_oxid_complex_ping_rqst(ptr noundef %0, i32 noundef %1, ptr noundef %2, ptr noundef %3, ptr noundef %4, ptr noundef %5) #0 {
  %7 = alloca i16, align 2
  %8 = alloca i16, align 2
  %9 = alloca i16, align 2
  %10 = alloca i32, align 4
  %11 = alloca i32, align 4
  call void @llvm.lifetime.start.p0(i64 2, ptr nonnull %7) #3
  call void @llvm.lifetime.start.p0(i64 2, ptr nonnull %8) #3
  call void @llvm.lifetime.start.p0(i64 2, ptr nonnull %9) #3
  call void @llvm.lifetime.start.p0(i64 4, ptr nonnull %10) #3
  call void @llvm.lifetime.start.p0(i64 4, ptr nonnull %11) #3
  %12 = load i32, ptr @hf_oxid_setid, align 4
  %13 = tail call i32 @dissect_ndr_duint32(ptr noundef %0, i32 noundef %1, ptr noundef %2, ptr noundef %3, ptr noundef %4, ptr noundef %5, i32 noundef %12, ptr noundef null)
  %14 = load i32, ptr @hf_oxid_seqnum, align 4
  %15 = call i32 @dissect_ndr_uint16(ptr noundef %0, i32 noundef %13, ptr noundef %2, ptr noundef %3, ptr noundef %4, ptr noundef %5, i32 noundef %14, ptr noundef nonnull %7)
  %16 = load i32, ptr @hf_oxid_addtoset, align 4
  %17 = call i32 @dissect_ndr_uint16(ptr noundef %0, i32 noundef %15, ptr noundef %2, ptr noundef %3, ptr noundef %4, ptr noundef %5, i32 noundef %16, ptr noundef nonnull %8)
  %18 = load i32, ptr @hf_oxid_delfromset, align 4
  %19 = call i32 @dissect_ndr_uint16(ptr noundef %0, i32 noundef %17, ptr noundef %2, ptr noundef %3, ptr noundef %4, ptr noundef %5, i32 noundef %18, ptr noundef nonnull %9)
  %20 = getelementptr inbounds nuw i8, ptr %2, i64 8
  %21 = load ptr, ptr %20, align 8
  %22 = load i16, ptr %8, align 2
  %23 = zext i16 %22 to i32
  %24 = load i16, ptr %9, align 2
  %25 = zext i16 %24 to i32
  call void (ptr, i32, ptr, ...) @col_append_fstr(ptr noundef %21, i32 noundef 25, ptr noundef nonnull @.str.44, i32 noundef %23, i32 noundef %25)
  %26 = call i32 @dissect_dcom_dcerpc_pointer(ptr noundef %0, i32 noundef %19, ptr noundef %2, ptr noundef %3, ptr noundef %4, ptr noundef %5, ptr noundef nonnull %10)
  %27 = load i32, ptr %10, align 4
  %.not = icmp eq i32 %27, 0
  br i1 %.not, label %.loopexit64, label %28

28:                                               ; preds = %6
  %29 = call i32 @dissect_dcom_dcerpc_array_size(ptr noundef %0, i32 noundef %26, ptr noundef %2, ptr noundef %3, ptr noundef %4, ptr noundef %5, ptr noundef nonnull %11)
  %30 = load i16, ptr %8, align 2
  %31 = add i16 %30, -1
  store i16 %31, ptr %8, align 2
  %.not6165 = icmp eq i16 %30, 0
  br i1 %.not6165, label %.loopexit64, label %.lr.ph

.lr.ph:                                           ; preds = %28, %.lr.ph
  %.166 = phi i32 [ %33, %.lr.ph ], [ %29, %28 ]
  %32 = load i32, ptr @hf_oxid_oid, align 4
  %33 = call i32 @dissect_ndr_duint32(ptr noundef %0, i32 noundef %.166, ptr noundef %2, ptr noundef %3, ptr noundef %4, ptr noundef %5, i32 noundef %32, ptr noundef null)
  %34 = load i16, ptr %8, align 2
  %35 = add i16 %34, -1
  store i16 %35, ptr %8, align 2
  %.not61 = icmp eq i16 %34, 0
  br i1 %.not61, label %.loopexit64, label %.lr.ph, !llvm.loop !6

.loopexit64:                                      ; preds = %.lr.ph, %28, %6
  %.0 = phi i32 [ %26, %6 ], [ %29, %28 ], [ %33, %.lr.ph ]
  %36 = call i32 @dissect_dcom_dcerpc_pointer(ptr noundef %0, i32 noundef %.0, ptr noundef %2, ptr noundef %3, ptr noundef %4, ptr noundef %5, ptr noundef nonnull %10)
  %37 = load i32, ptr %10, align 4
  %.not62 = icmp eq i32 %37, 0
  br i1 %.not62, label %.loopexit, label %38

38:                                               ; preds = %.loopexit64
  %39 = call i32 @dissect_dcom_dcerpc_array_size(ptr noundef %0, i32 noundef %36, ptr noundef %2, ptr noundef %3, ptr noundef %4, ptr noundef %5, ptr noundef nonnull %11)
  %40 = load i16, ptr %9, align 2
  %41 = add i16 %40, -1
  store i16 %41, ptr %9, align 2
  %.not6367 = icmp eq i16 %40, 0
  br i1 %.not6367, label %.loopexit, label %.lr.ph69

.lr.ph69:                                         ; preds = %38, %.lr.ph69
  %.368 = phi i32 [ %43, %.lr.ph69 ], [ %39, %38 ]
  %42 = load i32, ptr @hf_oxid_oid, align 4
  %43 = call i32 @dissect_ndr_duint32(ptr noundef %0, i32 noundef %.368, ptr noundef %2, ptr noundef %3, ptr noundef %4, ptr noundef %5, i32 noundef %42, ptr noundef null)
  %44 = load i16, ptr %9, align 2
  %45 = add i16 %44, -1
  store i16 %45, ptr %9, align 2
  %.not63 = icmp eq i16 %44, 0
  br i1 %.not63, label %.loopexit, label %.lr.ph69, !llvm.loop !8

.loopexit:                                        ; preds = %.lr.ph69, %38, %.loopexit64
  %.2 = phi i32 [ %36, %.loopexit64 ], [ %39, %38 ], [ %43, %.lr.ph69 ]
  call void @llvm.lifetime.end.p0(i64 4, ptr nonnull %11) #3
  call void @llvm.lifetime.end.p0(i64 4, ptr nonnull %10) #3
  call void @llvm.lifetime.end.p0(i64 2, ptr nonnull %9) #3
  call void @llvm.lifetime.end.p0(i64 2, ptr nonnull %8) #3
  call void @llvm.lifetime.end.p0(i64 2, ptr nonnull %7) #3
  ret i32 %.2
}